; Function Attrs: nounwind uwtable
define noalias noundef ptr @Gia_GenDecoder(ptr noundef %0, ptr noundef %1, i32 noundef %2) local_unnamed_addr #0 {
  %4 = icmp eq i32 %2, 1
  br i1 %4, label %Vec_IntPush.exit51, label %12

Vec_IntPush.exit51:                               ; preds = %3
  %5 = tail call noalias dereferenceable_or_null(16) ptr @malloc(i64 noundef 16) #23
  %6 = getelementptr inbounds nuw i8, ptr %5, i64 4
  store i32 16, ptr %5, align 8, !tbaa !43
  %7 = tail call noalias dereferenceable_or_null(64) ptr @malloc(i64 noundef 64) #23
  %8 = getelementptr inbounds nuw i8, ptr %5, i64 8
  store ptr %7, ptr %8, align 8, !tbaa !44
  %9 = load i32, ptr %1, align 4, !tbaa !19
  %10 = xor i32 %9, 1
  store i32 %10, ptr %7, align 4, !tbaa !19
  store i32 2, ptr %6, align 4, !tbaa !41
  %11 = getelementptr inbounds nuw i8, ptr %7, i64 4
  store i32 %9, ptr %11, align 4, !tbaa !19
  br label %74

12:                                               ; preds = %3
  %13 = sdiv i32 %2, 2
  %14 = sub nsw i32 %2, %13
  %15 = tail call ptr @Gia_GenDecoder(ptr noundef %0, ptr noundef %1, i32 noundef %13)
  %16 = sext i32 %13 to i64
  %17 = getelementptr inbounds i32, ptr %1, i64 %16
  %18 = tail call ptr @Gia_GenDecoder(ptr noundef %0, ptr noundef %17, i32 noundef %14)
  %19 = getelementptr i8, ptr %15, i64 4
  %.val42 = load i32, ptr %19, align 4, !tbaa !41
  %20 = getelementptr i8, ptr %18, i64 4
  %.val41 = load i32, ptr %20, align 4, !tbaa !41
  %21 = mul nsw i32 %.val41, %.val42
  %22 = tail call noalias dereferenceable_or_null(16) ptr @malloc(i64 noundef 16) #23
  %23 = add i32 %21, -1
  %or.cond.i = icmp ult i32 %23, 15
  %spec.store.select.i = select i1 %or.cond.i, i32 16, i32 %21
  %24 = getelementptr inbounds nuw i8, ptr %22, i64 4
  store i32 0, ptr %24, align 4, !tbaa !41
  store i32 %spec.store.select.i, ptr %22, align 8, !tbaa !43
  %.not.i = icmp eq i32 %spec.store.select.i, 0
  br i1 %.not.i, label %Vec_IntAlloc.exit, label %25

25:                                               ; preds = %12
  %26 = sext i32 %spec.store.select.i to i64
  %27 = shl nsw i64 %26, 2
  %28 = tail call noalias ptr @malloc(i64 noundef %27) #23
  br label %Vec_IntAlloc.exit

Vec_IntAlloc.exit:                                ; preds = %12, %25
  %29 = phi ptr [ %28, %25 ], [ null, %12 ]
  %30 = getelementptr inbounds nuw i8, ptr %22, i64 8
  store ptr %29, ptr %30, align 8, !tbaa !44
  %31 = icmp sgt i32 %.val41, 0
  br i1 %31, label %.lr.ph66, label %.critedge

.lr.ph66:                                         ; preds = %Vec_IntAlloc.exit
  %32 = getelementptr i8, ptr %18, i64 8
  %.val44 = load ptr, ptr %32, align 8, !tbaa !44
  %33 = getelementptr i8, ptr %15, i64 8
  %34 = icmp sgt i32 %.val42, 0
  br i1 %34, label %.lr.ph66.split, label %.critedge

.lr.ph66.split:                                   ; preds = %.lr.ph66, %.critedge2
  %.val4078 = phi i32 [ %.val40, %.critedge2 ], [ %.val41, %.lr.ph66 ]
  %.pre.i5474 = phi ptr [ %.pre.i5475, %.critedge2 ], [ %29, %.lr.ph66 ]
  %.val62 = phi i32 [ %.val6273, %.critedge2 ], [ %.val42, %.lr.ph66 ]
  %indvars.iv69 = phi i64 [ %indvars.iv.next70, %.critedge2 ], [ 0, %.lr.ph66 ]
  %35 = getelementptr inbounds nuw i32, ptr %.val44, i64 %indvars.iv69
  %36 = load i32, ptr %35, align 4, !tbaa !19
  %37 = icmp sgt i32 %.val62, 0
  br i1 %37, label %.lr.ph, label %.critedge2

.lr.ph:                                           ; preds = %.lr.ph66.split
  %.val43 = load ptr, ptr %33, align 8, !tbaa !44
  br label %38

38:                                               ; preds = %.lr.ph, %Vec_IntPush.exit58
  %39 = phi ptr [ %.pre.i5474, %.lr.ph ], [ %.pre.i5477, %Vec_IntPush.exit58 ]
  %indvars.iv = phi i64 [ 0, %.lr.ph ], [ %indvars.iv.next, %Vec_IntPush.exit58 ]
  %40 = getelementptr inbounds nuw i32, ptr %.val43, i64 %indvars.iv
  %41 = load i32, ptr %40, align 4, !tbaa !19
  %42 = tail call i32 @Gia_ManHashAnd(ptr noundef %0, i32 noundef %41, i32 noundef %36) #21
  %43 = load i32, ptr %24, align 4, !tbaa !41
  %44 = load i32, ptr %22, align 8, !tbaa !43
  %45 = icmp eq i32 %43, %44
  br i1 %45, label %46, label %Vec_IntPush.exit58

46:                                               ; preds = %38
  %47 = icmp slt i32 %43, 16
  br i1 %47, label %48, label %53

48:                                               ; preds = %46
  %.not9.i.i56 = icmp eq ptr %39, null
  br i1 %.not9.i.i56, label %51, label %49

49:                                               ; preds = %48
  %50 = tail call dereferenceable_or_null(64) ptr @realloc(ptr noundef nonnull %39, i64 noundef 64) #22
  br label %Vec_IntPush.exit58.sink.split

51:                                               ; preds = %48
  %52 = tail call noalias dereferenceable_or_null(64) ptr @malloc(i64 noundef 64) #23
  br label %Vec_IntPush.exit58.sink.split

53:                                               ; preds = %46
  %54 = shl nuw nsw i32 %43, 1
  %.not9.i9.i55 = icmp eq ptr %39, null
  %55 = zext nneg i32 %54 to i64
  %56 = shl nuw nsw i64 %55, 2
  br i1 %.not9.i9.i55, label %59, label %57

57:                                               ; preds = %53
  %58 = tail call ptr @realloc(ptr noundef nonnull %39, i64 noundef %56) #22
  br label %Vec_IntPush.exit58.sink.split

59:                                               ; preds = %53
  %60 = tail call noalias ptr @malloc(i64 noundef %56) #23
  br label %Vec_IntPush.exit58.sink.split

Vec_IntPush.exit58.sink.split:                    ; preds = %57, %59, %49, %51
  %.sink80 = phi ptr [ %50, %49 ], [ %52, %51 ], [ %58, %57 ], [ %60, %59 ]
  %.sink = phi i32 [ 16, %49 ], [ 16, %51 ], [ %54, %57 ], [ %54, %59 ]
  store ptr %.sink80, ptr %30, align 8, !tbaa !44
  store i32 %.sink, ptr %22, align 8, !tbaa !43
  br label %Vec_IntPush.exit58

Vec_IntPush.exit58:                               ; preds = %Vec_IntPush.exit58.sink.split, %38
  %.pre.i5477 = phi ptr [ %39, %38 ], [ %.sink80, %Vec_IntPush.exit58.sink.split ]
  %61 = add nsw i32 %43, 1
  store i32 %61, ptr %24, align 4, !tbaa !41
  %62 = sext i32 %43 to i64
  %63 = getelementptr inbounds i32, ptr %.pre.i5477, i64 %62
  store i32 %42, ptr %63, align 4, !tbaa !19
  %indvars.iv.next = add nuw nsw i64 %indvars.iv, 1
  %.val = load i32, ptr %19, align 4, !tbaa !41
  %64 = sext i32 %.val to i64
  %65 = icmp slt i64 %indvars.iv.next, %64
  br i1 %65, label %38, label %.critedge2.loopexit, !llvm.loop !146

.critedge2.loopexit:                              ; preds = %Vec_IntPush.exit58
  %.val40.pre = load i32, ptr %20, align 4, !tbaa !41
  br label %.critedge2

.critedge2:                                       ; preds = %.critedge2.loopexit, %.lr.ph66.split
  %.val40 = phi i32 [ %.val40.pre, %.critedge2.loopexit ], [ %.val4078, %.lr.ph66.split ]
  %.pre.i5475 = phi ptr [ %.pre.i5477, %.critedge2.loopexit ], [ %.pre.i5474, %.lr.ph66.split ]
  %.val6273 = phi i32 [ %.val, %.critedge2.loopexit ], [ %.val62, %.lr.ph66.split ]
  %indvars.iv.next70 = add nuw nsw i64 %indvars.iv69, 1
  %66 = sext i32 %.val40 to i64
  %67 = icmp slt i64 %indvars.iv.next70, %66
  br i1 %67, label %.lr.ph66.split, label %.critedge, !llvm.loop !147

.critedge:                                        ; preds = %.critedge2, %.lr.ph66, %Vec_IntAlloc.exit
  %68 = getelementptr inbounds nuw i8, ptr %15, i64 8
  %69 = load ptr, ptr %68, align 8, !tbaa !44
  %.not.i59 = icmp eq ptr %69, null
  br i1 %.not.i59, label %Vec_IntFree.exit, label %70

70:                                               ; preds = %.critedge
  tail call void @free(ptr noundef nonnull %69) #21
  br label %Vec_IntFree.exit

Vec_IntFree.exit:                                 ; preds = %.critedge, %70
  tail call void @free(ptr noundef nonnull %15) #21
  %71 = getelementptr inbounds nuw i8, ptr %18, i64 8
  %72 = load ptr, ptr %71, align 8, !tbaa !44
  %.not.i60 = icmp eq ptr %72, null
  br i1 %.not.i60, label %Vec_IntFree.exit61, label %73

73:                                               ; preds = %Vec_IntFree.exit
  tail call void @free(ptr noundef nonnull %72) #21
  br label %Vec_IntFree.exit61

Vec_IntFree.exit61:                               ; preds = %Vec_IntFree.exit, %73
  tail call void @free(ptr noundef nonnull %18) #21
  br label %74

74:                                               ; preds = %Vec_IntFree.exit61, %Vec_IntPush.exit51
  %.0 = phi ptr [ %5, %Vec_IntPush.exit51 ], [ %22, %Vec_IntFree.exit61 ]
  ret ptr %.0
}